; Function Attrs: null_pointer_is_valid sspstrong uwtable
define hidden void @recent_insert_column(i32 noundef %0) local_unnamed_addr #0 {
  %2 = tail call noalias dereferenceable_or_null(8) ptr @g_malloc(i64 noundef 8) #12
  store i32 -1, ptr %2, align 4
  %3 = getelementptr inbounds nuw i8, ptr %2, i64 4
  store i8 0, ptr %3, align 4
  %4 = load ptr, ptr getelementptr inbounds nuw (i8, ptr @recent, i64 136), align 8
  %5 = tail call ptr @g_list_insert(ptr noundef %4, ptr noundef %2, i32 noundef %0)
  store ptr %5, ptr getelementptr inbounds nuw (i8, ptr @recent, i64 136), align 8
  ret void
}